(dp1
S'sg_version_data'
p2
(dp3
S'code'
p4
S'v0.18.101'
p5
sS'description'
p6
S'Improved core update message to specify the newer version of Toolkit and upgraded the Shotgun API to v3.0.33.'
p7
sS'tags'
p8
(lp9
sS'sg_payload'
p10
(dp11
S'name'
p12
S'sgtk_core_v0.18.101.zip'
p13
sS'url'
p14
S'https://tank.shotgunstudio.com/file_serve/attachment/17918'
p15
sS'content_type'
p16
S'application/zip'
p17
sS'type'
p18
S'Attachment'
p19
sS'id'
p20
I17918
sS'link_type'
p21
S'upload'
p22
ssS'sg_status_list'
p23
S'prod'
p24
sS'sg_detailed_release_notes'
p25
(dp26
S'name'
p27
S'v0.18.101'
p28
sS'url'
p29
S'https://support.shotgunsoftware.com/hc/en-us/articles/219039838#v0.18.101'
p30
sS'content_type'
p31
NsS'type'
p32
S'Attachment'
p33
sS'id'
p34
I17916
sS'link_type'
p35
S'web'
p36
ssS'sg_documentation'
p37
(dp38
S'name'
p39
S'Documentation'
p40
sS'url'
p41
S'https://support.shotgunsoftware.com/hc/en-us/articles/219039808'
p42
sS'content_type'
p43
NsS'type'
p44
S'Attachment'
p45
sS'id'
p46
I17917
sS'link_type'
p47
S'web'
p48
ssS'type'
p49
S'CustomNonProjectEntity01'
p50
sS'id'
p51
I563
ssS'sg_bundle_data'
p52
Ns.